target datalayout = "e-m:e-p270:32:32-p271:32:32-p272:64:64-i64:64-i128:128-f80:128-n8:16:32:64-S128"
target triple = "x86_64-pc-linux-gnu"

@ntlmssp_option_nt_password = internal global ptr null, align 8
@.str.241 = private unnamed_addr constant [29 x i8] c"NTLM Secure Service Provider\00", align 1
@.str.242 = private unnamed_addr constant [8 x i8] c"NTLMSSP\00", align 1
@.str.243 = private unnamed_addr constant [8 x i8] c"ntlmssp\00", align 1
@proto_ntlmssp = internal global i32 0, align 4
@.str.244 = private unnamed_addr constant [12 x i8] c"nt_password\00", align 1
@.str.245 = private unnamed_addr constant [12 x i8] c"NT Password\00", align 1
@.str.246 = private unnamed_addr constant [80 x i8] c"Cleartext NT Password (used to decrypt payloads, supports only ASCII passwords)\00", align 1
@ntlmssp_handle = internal global ptr null, align 8
@.str.247 = private unnamed_addr constant [16 x i8] c"ntlmssp_payload\00", align 1
@ntlmssp_wrap_handle = internal global ptr null, align 8
@.str.248 = private unnamed_addr constant [18 x i8] c"ntlmssp_data_only\00", align 1
@.str.249 = private unnamed_addr constant [13 x i8] c"ntlmssp_verf\00", align 1
@ntlmssp_tap = internal global i32 0, align 4

; Function Attrs: null_pointer_is_valid sspstrong uwtable
define hidden void @proto_register_ntlmssp() #0 {
  %1 = alloca ptr, align 8
  %2 = alloca ptr, align 8
  call void @llvm.lifetime.start.p0(i64 8, ptr %1) #17
  call void @llvm.lifetime.start.p0(i64 8, ptr %2) #17
  %3 = call i32 @proto_register_protocol(ptr noundef @.str.241, ptr noundef @.str.242, ptr noundef @.str.243)
  store i32 %3, ptr @proto_ntlmssp, align 4
  %4 = load i32, ptr @proto_ntlmssp, align 4
  call void @proto_register_field_array(i32 noundef %4, ptr noundef @proto_register_ntlmssp.hf, i32 noundef 116)
  call void @proto_register_subtree_array(ptr noundef @proto_register_ntlmssp.ett, i32 noundef 10)
  %5 = load i32, ptr @proto_ntlmssp, align 4
  %6 = call ptr @expert_register_protocol(i32 noundef %5)
  store ptr %6, ptr %2, align 8
  %7 = load ptr, ptr %2, align 8
  call void @expert_register_field_array(ptr noundef %7, ptr noundef @proto_register_ntlmssp.ei, i32 noundef 8)
  call void @register_init_routine(ptr noundef @ntlmssp_init_protocol)
  call void @register_cleanup_routine(ptr noundef @ntlmssp_cleanup_protocol)
  %8 = load i32, ptr @proto_ntlmssp, align 4
  %9 = call ptr @prefs_register_protocol(i32 noundef %8, ptr noundef null)
  store ptr %9, ptr %1, align 8
  %10 = load ptr, ptr %1, align 8
  call void @prefs_register_string_preference(ptr noundef %10, ptr noundef @.str.244, ptr noundef @.str.245, ptr noundef @.str.246, ptr noundef @ntlmssp_option_nt_password)
  %11 = load i32, ptr @proto_ntlmssp, align 4
  %12 = call ptr @register_dissector(ptr noundef @.str.243, ptr noundef @dissect_ntlmssp, i32 noundef %11)
  store ptr %12, ptr @ntlmssp_handle, align 8
  %13 = load i32, ptr @proto_ntlmssp, align 4
  %14 = call ptr @register_dissector(ptr noundef @.str.247, ptr noundef @dissect_ntlmssp_payload, i32 noundef %13)
  store ptr %14, ptr @ntlmssp_wrap_handle, align 8
  %15 = load i32, ptr @proto_ntlmssp, align 4
  %16 = call ptr @register_dissector(ptr noundef @.str.248, ptr noundef @dissect_ntlmssp_payload_only, i32 noundef %15)
  %17 = load i32, ptr @proto_ntlmssp, align 4
  %18 = call ptr @register_dissector(ptr noundef @.str.249, ptr noundef @dissect_ntlmssp_verf, i32 noundef %17)
  %19 = call i32 @register_tap(ptr noundef @.str.243)
  store i32 %19, ptr @ntlmssp_tap, align 4
  call void @llvm.lifetime.end.p0(i64 8, ptr %2) #17
  call void @llvm.lifetime.end.p0(i64 8, ptr %1) #17
  ret void
}