; Function Attrs: null_pointer_is_valid sspstrong uwtable
define hidden void @proto_register_ntlmssp() local_unnamed_addr #0 {
  %1 = tail call i32 @proto_register_protocol(ptr noundef nonnull @.str.241, ptr noundef nonnull @.str.242, ptr noundef nonnull @.str.243)
  store i32 %1, ptr @proto_ntlmssp, align 4
  tail call void @proto_register_field_array(i32 noundef %1, ptr noundef nonnull @proto_register_ntlmssp.hf, i32 noundef 116)
  tail call void @proto_register_subtree_array(ptr noundef nonnull @proto_register_ntlmssp.ett, i32 noundef 10)
  %2 = load i32, ptr @proto_ntlmssp, align 4
  %3 = tail call ptr @expert_register_protocol(i32 noundef %2)
  tail call void @expert_register_field_array(ptr noundef %3, ptr noundef nonnull @proto_register_ntlmssp.ei, i32 noundef 8)
  tail call void @register_init_routine(ptr noundef nonnull @ntlmssp_init_protocol)
  tail call void @register_cleanup_routine(ptr noundef nonnull @ntlmssp_cleanup_protocol)
  %4 = load i32, ptr @proto_ntlmssp, align 4
  %5 = tail call ptr @prefs_register_protocol(i32 noundef %4, ptr noundef null)
  tail call void @prefs_register_string_preference(ptr noundef %5, ptr noundef nonnull @.str.244, ptr noundef nonnull @.str.245, ptr noundef nonnull @.str.246, ptr noundef nonnull @ntlmssp_option_nt_password)
  %6 = load i32, ptr @proto_ntlmssp, align 4
  %7 = tail call ptr @register_dissector(ptr noundef nonnull @.str.243, ptr noundef nonnull @dissect_ntlmssp, i32 noundef %6)
  store ptr %7, ptr @ntlmssp_handle, align 8
  %8 = load i32, ptr @proto_ntlmssp, align 4
  %9 = tail call ptr @register_dissector(ptr noundef nonnull @.str.247, ptr noundef nonnull @dissect_ntlmssp_payload, i32 noundef %8)
  store ptr %9, ptr @ntlmssp_wrap_handle, align 8
  %10 = load i32, ptr @proto_ntlmssp, align 4
  %11 = tail call ptr @register_dissector(ptr noundef nonnull @.str.248, ptr noundef nonnull @dissect_ntlmssp_payload_only, i32 noundef %10)
  %12 = load i32, ptr @proto_ntlmssp, align 4
  %13 = tail call ptr @register_dissector(ptr noundef nonnull @.str.249, ptr noundef nonnull @dissect_ntlmssp_verf, i32 noundef %12)
  %14 = tail call i32 @register_tap(ptr noundef nonnull @.str.243)
  store i32 %14, ptr @ntlmssp_tap, align 4
  ret void
}